(lp0
(S'cppflags'
p1
ccopy_reg
_reconstructor
p2
(cino.utils
SpaceList
p3
c__builtin__
list
p4
(lp5
S'-mmcu=atmega328p'
p6
aS'-DF_CPU=16000000L'
p7
aS'-DARDUINO=106'
p8
aS'-I/usr/share/arduino/hardware/arduino/cores/arduino'
p9
aS'-ffunction-sections'
p10
aS'-fdata-sections'
p11
aS'-g'
p12
aS'-Os'
p13
aS'-w'
p14
aS'-I/usr/share/arduino/hardware/arduino/variants/standard'
p15
aS'-I/usr/share/arduino/libraries/Servo'
p16
aS'-I/usr/share/arduino/libraries/SoftwareSerial'
p17
aS'-I/usr/share/arduino/libraries/Wire'
p18
aS'-I/usr/share/arduino/libraries/Wire/utility'
p19
aS'-I/usr/share/arduino/hardware/arduino/cores/arduino'
p20
aS'-I/usr/share/arduino/hardware/arduino/cores/arduino/avr-libc'
p21
atp22
Rp23
tp24
a(S'version.txt'
p25
S'/usr/share/arduino/lib/version.txt'
p26
tp27
a(S'used_libs'
p28
(lp29
S'/usr/share/arduino/libraries/Servo'
p30
aS'/usr/share/arduino/libraries/SoftwareSerial'
p31
aS'/usr/share/arduino/libraries/Wire'
p32
aS'/usr/share/arduino/hardware/arduino/cores/arduino'
p33
atp34
a(S'cc'
p35
S'/usr/share/arduino/hardware/tools/avr/bin/avr-gcc'
p36
tp37
a(S'make'
p38
S'/usr/bin/make'
p39
tp40
a(S'build_dir'
p41
S'.build/uno'
p42
tp43
a(S'arduino_core_dir'
p44
g33
tp45
a(S'boards.txt'
p46
(lp47
S'/usr/share/arduino/hardware/arduino/boards.txt'
p48
atp49
a(S'cxxflags'
p50
g2
(g3
g4
(lp51
S'-fno-exceptions'
p52
atp53
Rp54
tp55
a(S'arduino_variants_dir'
p56
S'/usr/share/arduino/hardware/arduino/variants'
p57
tp58
a(S'deps'
p59
g2
(g3
g4
(lp60
S'.build/uno/src/dependencies.d'
p61
aS'.build/uno/arduino/dependencies.d'
p62
aS'.build/uno/Servo/dependencies.d'
p63
aS'.build/uno/SoftwareSerial/dependencies.d'
p64
aS'.build/uno/Wire/dependencies.d'
p65
atp66
Rp67
tp68
a(S'ar'
p69
S'/usr/share/arduino/hardware/tools/avr/bin/avr-ar'
p70
tp71
a(S'names'
p72
(dp73
S'cpp'
p74
S'%s.cpp'
p75
sS'obj'
p76
S'%s.o'
p77
sS'deps'
p78
S'%s.d'
p79
sS'lib'
p80
S'lib%s.a'
p81
stp82
a(S'cflags'
p83
g2
(g3
g4
(lp84
tp85
Rp86
tp87
a(S'ldflags'
p88
g2
(g3
g4
(lp89
g6
aS'-Wl,-Os'
p90
aS'-Wl,--gc-sections'
p91
atp92
Rp93
tp94
a(S'arduino_libraries_dir'
p95
S'/usr/share/arduino/libraries'
p96
tp97
a(S'arduino_lib_version'
p98
g2
(cino.environment
Version
p99
c__builtin__
tuple
p100
(I1
I0
I6
tp101
tp102
Rp103
tp104
a(S'objcopy'
p105
S'/usr/share/arduino/hardware/tools/avr/bin/avr-objcopy'
p106
tp107
a(S'board_models'
p108
cino.environment
BoardModels
p109
((lp110
(lp111
S'uno'
p112
a(dp113
S'bootloader'
p114
(dp115
S'extended_fuses'
p116
S'0x05'
p117
sS'high_fuses'
p118
S'0xde'
p119
sS'low_fuses'
p120
S'0xff'
p121
sS'lock_bits'
p122
S'0x0F'
p123
sS'file'
p124
S'optiboot_atmega328.hex'
p125
sS'path'
p126
S'optiboot'
p127
sS'unlock_bits'
p128
S'0x3F'
p129
ssS'upload'
p130
(dp131
S'speed'
p132
S'115200'
p133
sS'maximum_size'
p134
S'32256'
p135
sS'protocol'
p136
S'arduino'
p137
ssS'build'
p138
(dp139
S'core'
p140
S'arduino'
p141
sS'mcu'
p142
S'atmega328p'
p143
sS'f_cpu'
p144
S'16000000L'
p145
sS'variant'
p146
S'standard'
p147
ssS'name'
p148
S'Arduino Uno'
p149
sS'_coredir'
p150
S'/usr/share/arduino/hardware/arduino'
p151
saa(lp152
S'atmega328'
p153
a(dp154
S'bootloader'
p155
(dp156
S'extended_fuses'
p157
S'0x05'
p158
sS'high_fuses'
p159
S'0xDA'
p160
sS'low_fuses'
p161
S'0xFF'
p162
sS'lock_bits'
p163
S'0x0F'
p164
sS'file'
p165
S'ATmegaBOOT_168_atmega328.hex'
p166
sS'path'
p167
S'atmega'
p168
sS'unlock_bits'
p169
S'0x3F'
p170
ssS'upload'
p171
(dp172
S'speed'
p173
S'57600'
p174
sS'maximum_size'
p175
S'30720'
p176
sS'protocol'
p177
S'arduino'
p178
ssS'build'
p179
(dp180
S'core'
p181
S'arduino'
p182
sS'mcu'
p183
S'atmega328p'
p184
sS'f_cpu'
p185
S'16000000L'
p186
sS'variant'
p187
S'standard'
p188
ssS'name'
p189
S'Arduino Duemilanove w/ ATmega328'
p190
sg150
S'/usr/share/arduino/hardware/arduino'
p191
saa(lp192
S'diecimila'
p193
a(dp194
S'bootloader'
p195
(dp196
S'extended_fuses'
p197
S'0x00'
p198
sS'high_fuses'
p199
S'0xdd'
p200
sS'low_fuses'
p201
S'0xff'
p202
sS'lock_bits'
p203
S'0x0F'
p204
sS'file'
p205
S'ATmegaBOOT_168_diecimila.hex'
p206
sS'path'
p207
S'atmega'
p208
sS'unlock_bits'
p209
S'0x3F'
p210
ssS'upload'
p211
(dp212
S'speed'
p213
S'19200'
p214
sS'maximum_size'
p215
S'14336'
p216
sS'protocol'
p217
S'arduino'
p218
ssS'build'
p219
(dp220
S'core'
p221
S'arduino'
p222
sS'mcu'
p223
S'atmega168'
p224
sS'f_cpu'
p225
S'16000000L'
p226
sS'variant'
p227
S'standard'
p228
ssS'name'
p229
S'Arduino Diecimila or Duemilanove w/ ATmega168'
p230
sg150
S'/usr/share/arduino/hardware/arduino'
p231
saa(lp232
S'nano328'
p233
a(dp234
S'bootloader'
p235
(dp236
S'extended_fuses'
p237
S'0x05'
p238
sS'high_fuses'
p239
S'0xDA'
p240
sS'low_fuses'
p241
S'0xFF'
p242
sS'lock_bits'
p243
S'0x0F'
p244
sS'file'
p245
S'ATmegaBOOT_168_atmega328.hex'
p246
sS'path'
p247
S'atmega'
p248
sS'unlock_bits'
p249
S'0x3F'
p250
ssS'upload'
p251
(dp252
S'speed'
p253
S'57600'
p254
sS'maximum_size'
p255
S'30720'
p256
sS'protocol'
p257
S'arduino'
p258
ssS'build'
p259
(dp260
S'core'
p261
S'arduino'
p262
sS'mcu'
p263
S'atmega328p'
p264
sS'f_cpu'
p265
S'16000000L'
p266
sS'variant'
p267
S'eightanaloginputs'
p268
ssS'name'
p269
S'Arduino Nano w/ ATmega328'
p270
sg150
S'/usr/share/arduino/hardware/arduino'
p271
saa(lp272
S'nano'
p273
a(dp274
S'bootloader'
p275
(dp276
S'extended_fuses'
p277
S'0x00'
p278
sS'high_fuses'
p279
S'0xdd'
p280
sS'low_fuses'
p281
S'0xff'
p282
sS'lock_bits'
p283
S'0x0F'
p284
sS'file'
p285
S'ATmegaBOOT_168_diecimila.hex'
p286
sS'path'
p287
S'atmega'
p288
sS'unlock_bits'
p289
S'0x3F'
p290
ssS'upload'
p291
(dp292
S'speed'
p293
S'19200'
p294
sS'maximum_size'
p295
S'14336'
p296
sS'protocol'
p297
S'arduino'
p298
ssS'build'
p299
(dp300
S'core'
p301
S'arduino'
p302
sS'mcu'
p303
S'atmega168'
p304
sS'f_cpu'
p305
S'16000000L'
p306
sS'variant'
p307
S'eightanaloginputs'
p308
ssS'name'
p309
S'Arduino Nano w/ ATmega168'
p310
sg150
S'/usr/share/arduino/hardware/arduino'
p311
saa(lp312
S'mega2560'
p313
a(dp314
S'bootloader'
p315
(dp316
S'extended_fuses'
p317
S'0xFD'
p318
sS'high_fuses'
p319
S'0xD8'
p320
sS'low_fuses'
p321
S'0xFF'
p322
sS'lock_bits'
p323
S'0x0F'
p324
sS'file'
p325
S'stk500boot_v2_mega2560.hex'
p326
sS'path'
p327
S'stk500v2'
p328
sS'unlock_bits'
p329
S'0x3F'
p330
ssS'upload'
p331
(dp332
S'speed'
p333
S'115200'
p334
sS'maximum_size'
p335
S'258048'
p336
sS'protocol'
p337
S'wiring'
p338
ssS'build'
p339
(dp340
S'core'
p341
S'arduino'
p342
sS'mcu'
p343
S'atmega2560'
p344
sS'f_cpu'
p345
S'16000000L'
p346
sS'variant'
p347
S'mega'
p348
ssS'name'
p349
S'Arduino Mega 2560 or Mega ADK'
p350
sg150
S'/usr/share/arduino/hardware/arduino'
p351
saa(lp352
S'mega'
p353
a(dp354
S'bootloader'
p355
(dp356
S'extended_fuses'
p357
S'0xF5'
p358
sS'high_fuses'
p359
S'0xDA'
p360
sS'low_fuses'
p361
S'0xFF'
p362
sS'lock_bits'
p363
S'0x0F'
p364
sS'file'
p365
S'ATmegaBOOT_168_atmega1280.hex'
p366
sS'path'
p367
S'atmega'
p368
sS'unlock_bits'
p369
S'0x3F'
p370
ssS'upload'
p371
(dp372
S'speed'
p373
S'57600'
p374
sS'maximum_size'
p375
S'126976'
p376
sS'protocol'
p377
S'arduino'
p378
ssS'build'
p379
(dp380
S'core'
p381
S'arduino'
p382
sS'mcu'
p383
S'atmega1280'
p384
sS'f_cpu'
p385
S'16000000L'
p386
sS'variant'
p387
S'mega'
p388
ssS'name'
p389
S'Arduino Mega (ATmega1280)'
p390
sg150
S'/usr/share/arduino/hardware/arduino'
p391
saa(lp392
S'leonardo'
p393
a(dp394
S'bootloader'
p395
(dp396
S'extended_fuses'
p397
S'0xcb'
p398
sS'high_fuses'
p399
S'0xd8'
p400
sS'low_fuses'
p401
S'0xff'
p402
sS'lock_bits'
p403
S'0x2F'
p404
sS'file'
p405
S'Caterina-Leonardo.hex'
p406
sS'path'
p407
S'caterina'
p408
sS'unlock_bits'
p409
S'0x3F'
p410
ssS'upload'
p411
(dp412
S'speed'
p413
S'57600'
p414
sS'maximum_size'
p415
S'28672'
p416
sS'protocol'
p417
S'avr109'
p418
sS'disable_flushing'
p419
S'true'
p420
ssS'build'
p421
(dp422
S'core'
p423
S'arduino'
p424
sS'f_cpu'
p425
S'16000000L'
p426
sS'vid'
p427
S'0x2341'
p428
sS'pid'
p429
S'0x8036'
p430
sS'variant'
p431
S'leonardo'
p432
sS'mcu'
p433
S'atmega32u4'
p434
ssS'name'
p435
S'Arduino Leonardo'
p436
sg150
S'/usr/share/arduino/hardware/arduino'
p437
saa(lp438
S'esplora'
p439
a(dp440
S'bootloader'
p441
(dp442
S'extended_fuses'
p443
S'0xcb'
p444
sS'high_fuses'
p445
S'0xd8'
p446
sS'low_fuses'
p447
S'0xff'
p448
sS'lock_bits'
p449
S'0x2F'
p450
sS'file'
p451
S'Caterina-Esplora.hex'
p452
sS'path'
p453
S'caterina'
p454
sS'unlock_bits'
p455
S'0x3F'
p456
ssS'upload'
p457
(dp458
S'speed'
p459
S'57600'
p460
sS'maximum_size'
p461
S'28672'
p462
sS'protocol'
p463
S'avr109'
p464
sS'disable_flushing'
p465
S'true'
p466
ssS'build'
p467
(dp468
S'core'
p469
S'arduino'
p470
sS'f_cpu'
p471
S'16000000L'
p472
sS'vid'
p473
S'0x2341'
p474
sS'pid'
p475
S'0x803C'
p476
sS'variant'
p477
S'leonardo'
p478
sS'mcu'
p479
S'atmega32u4'
p480
ssS'name'
p481
S'Arduino Esplora'
p482
sg150
S'/usr/share/arduino/hardware/arduino'
p483
saa(lp484
S'micro'
p485
a(dp486
S'bootloader'
p487
(dp488
S'extended_fuses'
p489
S'0xcb'
p490
sS'high_fuses'
p491
S'0xd8'
p492
sS'low_fuses'
p493
S'0xff'
p494
sS'lock_bits'
p495
S'0x2F'
p496
sS'file'
p497
S'Caterina-Micro.hex'
p498
sS'path'
p499
S'caterina'
p500
sS'unlock_bits'
p501
S'0x3F'
p502
ssS'upload'
p503
(dp504
S'speed'
p505
S'57600'
p506
sS'maximum_size'
p507
S'28672'
p508
sS'protocol'
p509
S'avr109'
p510
sS'disable_flushing'
p511
S'true'
p512
ssS'build'
p513
(dp514
S'core'
p515
S'arduino'
p516
sS'f_cpu'
p517
S'16000000L'
p518
sS'vid'
p519
S'0x2341'
p520
sS'pid'
p521
S'0x8037'
p522
sS'variant'
p523
S'micro'
p524
sS'mcu'
p525
S'atmega32u4'
p526
ssS'name'
p527
S'Arduino Micro'
p528
sg150
S'/usr/share/arduino/hardware/arduino'
p529
saa(lp530
S'mini328'
p531
a(dp532
S'bootloader'
p533
(dp534
S'extended_fuses'
p535
S'0x05'
p536
sS'high_fuses'
p537
S'0xd8'
p538
sS'low_fuses'
p539
S'0xff'
p540
sS'lock_bits'
p541
S'0x0F'
p542
sS'file'
p543
S'optiboot_atmega328-Mini.hex'
p544
sS'path'
p545
S'optiboot'
p546
sS'unlock_bits'
p547
S'0x3F'
p548
ssS'upload'
p549
(dp550
S'speed'
p551
S'115200'
p552
sS'maximum_size'
p553
S'28672'
p554
sS'protocol'
p555
S'arduino'
p556
ssS'build'
p557
(dp558
S'core'
p559
S'arduino'
p560
sS'mcu'
p561
S'atmega328p'
p562
sS'f_cpu'
p563
S'16000000L'
p564
sS'variant'
p565
S'eightanaloginputs'
p566
ssS'name'
p567
S'Arduino Mini w/ ATmega328'
p568
sg150
S'/usr/share/arduino/hardware/arduino'
p569
saa(lp570
S'mini'
p571
a(dp572
S'bootloader'
p573
(dp574
S'extended_fuses'
p575
S'0x00'
p576
sS'high_fuses'
p577
S'0xdd'
p578
sS'low_fuses'
p579
S'0xff'
p580
sS'lock_bits'
p581
S'0x0F'
p582
sS'file'
p583
S'ATmegaBOOT_168_ng.hex'
p584
sS'path'
p585
S'atmega'
p586
sS'unlock_bits'
p587
S'0x3F'
p588
ssS'upload'
p589
(dp590
S'speed'
p591
S'19200'
p592
sS'maximum_size'
p593
S'14336'
p594
sS'protocol'
p595
S'arduino'
p596
ssS'build'
p597
(dp598
S'core'
p599
S'arduino'
p600
sS'mcu'
p601
S'atmega168'
p602
sS'f_cpu'
p603
S'16000000L'
p604
sS'variant'
p605
S'eightanaloginputs'
p606
ssS'name'
p607
S'Arduino Mini w/ ATmega168'
p608
sg150
S'/usr/share/arduino/hardware/arduino'
p609
saa(lp610
S'ethernet'
p611
a(dp612
S'bootloader'
p613
(dp614
S'extended_fuses'
p615
S'0x05'
p616
sS'high_fuses'
p617
S'0xde'
p618
sS'low_fuses'
p619
S'0xff'
p620
sS'lock_bits'
p621
S'0x0F'
p622
sS'file'
p623
S'optiboot_atmega328.hex'
p624
sS'path'
p625
S'optiboot'
p626
sS'unlock_bits'
p627
S'0x3F'
p628
ssS'upload'
p629
(dp630
S'speed'
p631
S'115200'
p632
sS'maximum_size'
p633
S'32256'
p634
sS'protocol'
p635
S'arduino'
p636
ssS'build'
p637
(dp638
S'f_cpu'
p639
S'16000000L'
p640
sS'mcu'
p641
S'atmega328p'
p642
sS'variant'
p643
S'ethernet'
p644
sS'core'
p645
S'arduino'
p646
ssS'name'
p647
S'Arduino Ethernet'
p648
sg150
S'/usr/share/arduino/hardware/arduino'
p649
saa(lp650
S'fio'
p651
a(dp652
S'bootloader'
p653
(dp654
S'extended_fuses'
p655
S'0x05'
p656
sS'high_fuses'
p657
S'0xDA'
p658
sS'low_fuses'
p659
S'0xFF'
p660
sS'lock_bits'
p661
S'0x0F'
p662
sS'file'
p663
S'ATmegaBOOT_168_atmega328_pro_8MHz.hex'
p664
sS'path'
p665
S'arduino:atmega'
p666
sS'unlock_bits'
p667
S'0x3F'
p668
ssS'upload'
p669
(dp670
S'speed'
p671
S'57600'
p672
sS'maximum_size'
p673
S'30720'
p674
sS'protocol'
p675
S'arduino'
p676
ssS'build'
p677
(dp678
S'core'
p679
S'arduino'
p680
sS'mcu'
p681
S'atmega328p'
p682
sS'f_cpu'
p683
S'8000000L'
p684
sS'variant'
p685
S'eightanaloginputs'
p686
ssS'name'
p687
S'Arduino Fio'
p688
sg150
S'/usr/share/arduino/hardware/arduino'
p689
saa(lp690
S'bt328'
p691
a(dp692
S'bootloader'
p693
(dp694
S'extended_fuses'
p695
S'0x05'
p696
sS'high_fuses'
p697
S'0xd8'
p698
sS'low_fuses'
p699
S'0xff'
p700
sS'lock_bits'
p701
S'0x0F'
p702
sS'file'
p703
S'ATmegaBOOT_168_atmega328_bt.hex'
p704
sS'path'
p705
S'bt'
p706
sS'unlock_bits'
p707
S'0x3F'
p708
ssS'upload'
p709
(dp710
S'speed'
p711
S'19200'
p712
sS'maximum_size'
p713
S'28672'
p714
sS'protocol'
p715
S'arduino'
p716
sS'disable_flushing'
p717
S'true'
p718
ssS'build'
p719
(dp720
S'core'
p721
S'arduino'
p722
sS'mcu'
p723
S'atmega328p'
p724
sS'f_cpu'
p725
S'16000000L'
p726
sS'variant'
p727
S'eightanaloginputs'
p728
ssS'name'
p729
S'Arduino BT w/ ATmega328'
p730
sg150
S'/usr/share/arduino/hardware/arduino'
p731
saa(lp732
S'bt'
p733
a(dp734
S'bootloader'
p735
(dp736
S'extended_fuses'
p737
S'0x00'
p738
sS'high_fuses'
p739
S'0xdd'
p740
sS'low_fuses'
p741
S'0xff'
p742
sS'lock_bits'
p743
S'0x0F'
p744
sS'file'
p745
S'ATmegaBOOT_168.hex'
p746
sS'path'
p747
S'bt'
p748
sS'unlock_bits'
p749
S'0x3F'
p750
ssS'upload'
p751
(dp752
S'speed'
p753
S'19200'
p754
sS'maximum_size'
p755
S'14336'
p756
sS'protocol'
p757
S'arduino'
p758
sS'disable_flushing'
p759
S'true'
p760
ssS'build'
p761
(dp762
S'core'
p763
S'arduino'
p764
sS'mcu'
p765
S'atmega168'
p766
sS'f_cpu'
p767
S'16000000L'
p768
sS'variant'
p769
S'eightanaloginputs'
p770
ssS'name'
p771
S'Arduino BT w/ ATmega168'
p772
sg150
S'/usr/share/arduino/hardware/arduino'
p773
saa(lp774
S'LilyPadUSB'
p775
a(dp776
S'bootloader'
p777
(dp778
S'extended_fuses'
p779
S'0xce'
p780
sS'high_fuses'
p781
S'0xd8'
p782
sS'low_fuses'
p783
S'0xff'
p784
sS'lock_bits'
p785
S'0x2F'
p786
sS'file'
p787
S'Caterina-LilyPadUSB.hex'
p788
sS'path'
p789
S'caterina-LilyPadUSB'
p790
sS'unlock_bits'
p791
S'0x3F'
p792
ssS'upload'
p793
(dp794
S'speed'
p795
S'57600'
p796
sS'maximum_size'
p797
S'28672'
p798
sS'protocol'
p799
S'avr109'
p800
sS'disable_flushing'
p801
S'true'
p802
ssS'build'
p803
(dp804
S'core'
p805
S'arduino'
p806
sS'f_cpu'
p807
S'8000000L'
p808
sS'vid'
p809
S'0x1B4F'
p810
sS'pid'
p811
S'0x9208'
p812
sS'variant'
p813
S'leonardo'
p814
sS'mcu'
p815
S'atmega32u4'
p816
ssS'name'
p817
S'LilyPad Arduino USB'
p818
sg150
S'/usr/share/arduino/hardware/arduino'
p819
saa(lp820
S'lilypad328'
p821
a(dp822
S'bootloader'
p823
(dp824
S'extended_fuses'
p825
S'0x05'
p826
sS'high_fuses'
p827
S'0xDA'
p828
sS'low_fuses'
p829
S'0xFF'
p830
sS'lock_bits'
p831
S'0x0F'
p832
sS'file'
p833
S'ATmegaBOOT_168_atmega328_pro_8MHz.hex'
p834
sS'path'
p835
S'atmega'
p836
sS'unlock_bits'
p837
S'0x3F'
p838
ssS'upload'
p839
(dp840
S'speed'
p841
S'57600'
p842
sS'maximum_size'
p843
S'30720'
p844
sS'protocol'
p845
S'arduino'
p846
ssS'build'
p847
(dp848
S'core'
p849
S'arduino'
p850
sS'mcu'
p851
S'atmega328p'
p852
sS'f_cpu'
p853
S'8000000L'
p854
sS'variant'
p855
S'standard'
p856
ssS'name'
p857
S'LilyPad Arduino w/ ATmega328'
p858
sg150
S'/usr/share/arduino/hardware/arduino'
p859
saa(lp860
S'lilypad'
p861
a(dp862
S'bootloader'
p863
(dp864
S'extended_fuses'
p865
S'0x00'
p866
sS'high_fuses'
p867
S'0xdd'
p868
sS'low_fuses'
p869
S'0xe2'
p870
sS'lock_bits'
p871
S'0x0F'
p872
sS'file'
p873
S'LilyPadBOOT_168.hex'
p874
sS'path'
p875
S'lilypad'
p876
sS'unlock_bits'
p877
S'0x3F'
p878
ssS'upload'
p879
(dp880
S'speed'
p881
S'19200'
p882
sS'maximum_size'
p883
S'14336'
p884
sS'protocol'
p885
S'arduino'
p886
ssS'build'
p887
(dp888
S'core'
p889
S'arduino'
p890
sS'mcu'
p891
S'atmega168'
p892
sS'f_cpu'
p893
S'8000000L'
p894
sS'variant'
p895
S'standard'
p896
ssS'name'
p897
S'LilyPad Arduino w/ ATmega168'
p898
sg150
S'/usr/share/arduino/hardware/arduino'
p899
saa(lp900
S'pro5v328'
p901
a(dp902
S'bootloader'
p903
(dp904
S'extended_fuses'
p905
S'0x05'
p906
sS'high_fuses'
p907
S'0xDA'
p908
sS'low_fuses'
p909
S'0xFF'
p910
sS'lock_bits'
p911
S'0x0F'
p912
sS'file'
p913
S'ATmegaBOOT_168_atmega328.hex'
p914
sS'path'
p915
S'atmega'
p916
sS'unlock_bits'
p917
S'0x3F'
p918
ssS'upload'
p919
(dp920
S'speed'
p921
S'57600'
p922
sS'maximum_size'
p923
S'30720'
p924
sS'protocol'
p925
S'arduino'
p926
ssS'build'
p927
(dp928
S'core'
p929
S'arduino'
p930
sS'mcu'
p931
S'atmega328p'
p932
sS'f_cpu'
p933
S'16000000L'
p934
sS'variant'
p935
S'standard'
p936
ssS'name'
p937
S'Arduino Pro or Pro Mini (5V, 16 MHz) w/ ATmega328'
p938
sg150
S'/usr/share/arduino/hardware/arduino'
p939
saa(lp940
S'pro5v'
p941
a(dp942
S'bootloader'
p943
(dp944
S'extended_fuses'
p945
S'0x00'
p946
sS'high_fuses'
p947
S'0xdd'
p948
sS'low_fuses'
p949
S'0xff'
p950
sS'lock_bits'
p951
S'0x0F'
p952
sS'file'
p953
S'ATmegaBOOT_168_diecimila.hex'
p954
sS'path'
p955
S'atmega'
p956
sS'unlock_bits'
p957
S'0x3F'
p958
ssS'upload'
p959
(dp960
S'speed'
p961
S'19200'
p962
sS'maximum_size'
p963
S'14336'
p964
sS'protocol'
p965
S'arduino'
p966
ssS'build'
p967
(dp968
S'core'
p969
S'arduino'
p970
sS'mcu'
p971
S'atmega168'
p972
sS'f_cpu'
p973
S'16000000L'
p974
sS'variant'
p975
S'standard'
p976
ssS'name'
p977
S'Arduino Pro or Pro Mini (5V, 16 MHz) w/ ATmega168'
p978
sg150
S'/usr/share/arduino/hardware/arduino'
p979
saa(lp980
S'pro328'
p981
a(dp982
S'bootloader'
p983
(dp984
S'extended_fuses'
p985
S'0x05'
p986
sS'high_fuses'
p987
S'0xDA'
p988
sS'low_fuses'
p989
S'0xFF'
p990
sS'lock_bits'
p991
S'0x0F'
p992
sS'file'
p993
S'ATmegaBOOT_168_atmega328_pro_8MHz.hex'
p994
sS'path'
p995
S'atmega'
p996
sS'unlock_bits'
p997
S'0x3F'
p998
ssS'upload'
p999
(dp1000
S'speed'
p1001
S'57600'
p1002
sS'maximum_size'
p1003
S'30720'
p1004
sS'protocol'
p1005
S'arduino'
p1006
ssS'build'
p1007
(dp1008
S'core'
p1009
S'arduino'
p1010
sS'mcu'
p1011
S'atmega328p'
p1012
sS'f_cpu'
p1013
S'8000000L'
p1014
sS'variant'
p1015
S'standard'
p1016
ssS'name'
p1017
S'Arduino Pro or Pro Mini (3.3V, 8 MHz) w/ ATmega328'
p1018
sg150
S'/usr/share/arduino/hardware/arduino'
p1019
saa(lp1020
S'pro'
p1021
a(dp1022
S'bootloader'
p1023
(dp1024
S'extended_fuses'
p1025
S'0x00'
p1026
sS'high_fuses'
p1027
S'0xdd'
p1028
sS'low_fuses'
p1029
S'0xc6'
p1030
sS'lock_bits'
p1031
S'0x0F'
p1032
sS'file'
p1033
S'ATmegaBOOT_168_pro_8MHz.hex'
p1034
sS'path'
p1035
S'atmega'
p1036
sS'unlock_bits'
p1037
S'0x3F'
p1038
ssS'upload'
p1039
(dp1040
S'speed'
p1041
S'19200'
p1042
sS'maximum_size'
p1043
S'14336'
p1044
sS'protocol'
p1045
S'arduino'
p1046
ssS'build'
p1047
(dp1048
S'core'
p1049
S'arduino'
p1050
sS'mcu'
p1051
S'atmega168'
p1052
sS'f_cpu'
p1053
S'8000000L'
p1054
sS'variant'
p1055
S'standard'
p1056
ssS'name'
p1057
S'Arduino Pro or Pro Mini (3.3V, 8 MHz) w/ ATmega168'
p1058
sg150
S'/usr/share/arduino/hardware/arduino'
p1059
saa(lp1060
S'atmega168'
p1061
a(dp1062
S'bootloader'
p1063
(dp1064
S'extended_fuses'
p1065
S'0x00'
p1066
sS'high_fuses'
p1067
S'0xdd'
p1068
sS'low_fuses'
p1069
S'0xff'
p1070
sS'lock_bits'
p1071
S'0x0F'
p1072
sS'file'
p1073
S'ATmegaBOOT_168_ng.hex'
p1074
sS'path'
p1075
S'atmega'
p1076
sS'unlock_bits'
p1077
S'0x3F'
p1078
ssS'upload'
p1079
(dp1080
S'speed'
p1081
S'19200'
p1082
sS'maximum_size'
p1083
S'14336'
p1084
sS'protocol'
p1085
S'arduino'
p1086
ssS'build'
p1087
(dp1088
S'core'
p1089
S'arduino'
p1090
sS'mcu'
p1091
S'atmega168'
p1092
sS'f_cpu'
p1093
S'16000000L'
p1094
sS'variant'
p1095
S'standard'
p1096
ssS'name'
p1097
S'Arduino NG or older w/ ATmega168'
p1098
sg150
S'/usr/share/arduino/hardware/arduino'
p1099
saa(lp1100
S'atmega8'
p1101
a(dp1102
S'bootloader'
p1103
(dp1104
S'high_fuses'
p1105
S'0xca'
p1106
sS'low_fuses'
p1107
S'0xdf'
p1108
sS'lock_bits'
p1109
S'0x0F'
p1110
sS'file'
p1111
S'ATmegaBOOT-prod-firmware-2009-11-07.hex'
p1112
sS'path'
p1113
S'atmega8'
p1114
sS'unlock_bits'
p1115
S'0x3F'
p1116
ssS'upload'
p1117
(dp1118
S'speed'
p1119
S'19200'
p1120
sS'maximum_size'
p1121
S'7168'
p1122
sS'protocol'
p1123
S'arduino'
p1124
ssS'build'
p1125
(dp1126
S'core'
p1127
S'arduino'
p1128
sS'mcu'
p1129
S'atmega8'
p1130
sS'f_cpu'
p1131
S'16000000L'
p1132
sS'variant'
p1133
S'standard'
p1134
ssS'name'
p1135
S'Arduino NG or older w/ ATmega8'
p1136
sg150
S'/usr/share/arduino/hardware/arduino'
p1137
saa(lp1138
S'robotControl'
p1139
a(dp1140
S'bootloader'
p1141
(dp1142
S'extended_fuses'
p1143
S'0xcb'
p1144
sS'high_fuses'
p1145
S'0xd8'
p1146
sS'low_fuses'
p1147
S'0xff'
p1148
sS'lock_bits'
p1149
S'0x2F'
p1150
sS'file'
p1151
S'Caterina-Robot-Control.hex'
p1152
sS'path'
p1153
S'caterina-Arduino_Robot'
p1154
sS'unlock_bits'
p1155
S'0x3F'
p1156
ssS'upload'
p1157
(dp1158
S'speed'
p1159
S'57600'
p1160
sS'maximum_size'
p1161
S'28672'
p1162
sS'protocol'
p1163
S'avr109'
p1164
sS'disable_flushing'
p1165
S'true'
p1166
ssS'build'
p1167
(dp1168
S'core'
p1169
S'robot'
p1170
sS'f_cpu'
p1171
S'16000000L'
p1172
sS'vid'
p1173
S'0x2341'
p1174
sS'pid'
p1175
S'0x8038'
p1176
sS'variant'
p1177
S'robot_control'
p1178
sS'mcu'
p1179
S'atmega32u4'
p1180
ssS'name'
p1181
S'Arduino Robot Control'
p1182
sg150
S'/usr/share/arduino/hardware/arduino'
p1183
saa(lp1184
S'robotMotor'
p1185
a(dp1186
S'bootloader'
p1187
(dp1188
S'extended_fuses'
p1189
S'0xcb'
p1190
sS'high_fuses'
p1191
S'0xd8'
p1192
sS'low_fuses'
p1193
S'0xff'
p1194
sS'lock_bits'
p1195
S'0x2F'
p1196
sS'file'
p1197
S'Caterina-Robot-Motor.hex'
p1198
sS'path'
p1199
S'caterina-Arduino_Robot'
p1200
sS'unlock_bits'
p1201
S'0x3F'
p1202
ssS'upload'
p1203
(dp1204
S'speed'
p1205
S'57600'
p1206
sS'maximum_size'
p1207
S'28672'
p1208
sS'protocol'
p1209
S'avr109'
p1210
sS'disable_flushing'
p1211
S'true'
p1212
ssS'build'
p1213
(dp1214
S'core'
p1215
S'robot'
p1216
sS'f_cpu'
p1217
S'16000000L'
p1218
sS'vid'
p1219
S'0x2341'
p1220
sS'pid'
p1221
S'0x8039'
p1222
sS'variant'
p1223
S'robot_motor'
p1224
sS'mcu'
p1225
S'atmega32u4'
p1226
ssS'name'
p1227
S'Arduino Robot Motor'
p1228
sg150
S'/usr/share/arduino/hardware/arduino'
p1229
saatp1230
Rp1231
(dp1232
S'default'
p1233
S'uno'
p1234
sbtp1235
a(S'cxx'
p1236
S'/usr/share/arduino/hardware/tools/avr/bin/avr-g++'
p1237
tp1238
a.